target datalayout = "e-m:e-p270:32:32-p271:32:32-p272:64:64-i64:64-i128:128-f80:128-n8:16:32:64-S128"
target triple = "x86_64-pc-linux-gnu"

%struct.tjscalingfactor = type { i32, i32 }

@numScalingFactors = internal global i32 0, align 4
@scalingFactors = internal global ptr null, align 8
@.str.18 = private unnamed_addr constant [6 x i8] c"%d/%d\00", align 1
@.str.44 = private unnamed_addr constant [51 x i8] c"\0AUSAGE: %s [options] <JPEG image> <Output image>\0A\0A\00", align 1
@.str.45 = private unnamed_addr constant [80 x i8] c"The output image will be in Windows BMP or PBMPLUS (PPM/PGM) format, depending\0A\00", align 1
@.str.46 = private unnamed_addr constant [25 x i8] c"on the file extension.\0A\0A\00", align 1
@.str.47 = private unnamed_addr constant [39 x i8] c"GENERAL OPTIONS (CAN BE ABBREVBIATED)\0A\00", align 1
@.str.48 = private unnamed_addr constant [39 x i8] c"-------------------------------------\0A\00", align 1
@.str.49 = private unnamed_addr constant [11 x i8] c"-icc FILE\0A\00", align 1
@.str.50 = private unnamed_addr constant [77 x i8] c"    Extract the ICC (International Color Consortium) color profile from the\0A\00", align 1
@.str.51 = private unnamed_addr constant [38 x i8] c"    JPEG image to the specified file\0A\00", align 1
@.str.52 = private unnamed_addr constant [9 x i8] c"-strict\0A\00", align 1
@.str.53 = private unnamed_addr constant [77 x i8] c"    Treat all warnings as fatal; abort immediately if incomplete or corrupt\0A\00", align 1
@.str.54 = private unnamed_addr constant [78 x i8] c"    data is encountered in the JPEG image, rather than trying to salvage the\0A\00", align 1
@.str.55 = private unnamed_addr constant [24 x i8] c"    rest of the image\0A\0A\00", align 1
@.str.56 = private unnamed_addr constant [41 x i8] c"LOSSY JPEG OPTIONS (CAN BE ABBREVIATED)\0A\00", align 1
@.str.57 = private unnamed_addr constant [41 x i8] c"---------------------------------------\0A\00", align 1
@.str.58 = private unnamed_addr constant [15 x i8] c"-crop WxH+X+Y\0A\00", align 1
@.str.59 = private unnamed_addr constant [78 x i8] c"    Decompress only the specified region of the JPEG image.  (W, H, X, and Y\0A\00", align 1
@.str.60 = private unnamed_addr constant [81 x i8] c"    are the width, height, left boundary, and upper boundary of the region, all\0A\00", align 1
@.str.61 = private unnamed_addr constant [79 x i8] c"    specified relative to the scaled image dimensions.)  If necessary, X will\0A\00", align 1
@.str.62 = private unnamed_addr constant [75 x i8] c"    be shifted left to the nearest iMCU boundary, and W will be increased\0A\00", align 1
@.str.63 = private unnamed_addr constant [18 x i8] c"    accordingly.\0A\00", align 1
@.str.64 = private unnamed_addr constant [11 x i8] c"-dct fast\0A\00", align 1
@.str.65 = private unnamed_addr constant [55 x i8] c"    Use less accurate IDCT algorithm [legacy feature]\0A\00", align 1
@.str.66 = private unnamed_addr constant [10 x i8] c"-dct int\0A\00", align 1
@.str.67 = private unnamed_addr constant [48 x i8] c"    Use more accurate IDCT algorithm [default]\0A\00", align 1
@.str.68 = private unnamed_addr constant [12 x i8] c"-grayscale\0A\00", align 1
@.str.69 = private unnamed_addr constant [70 x i8] c"    Decompress a full-color JPEG image into a grayscale output image\0A\00", align 1
@.str.70 = private unnamed_addr constant [14 x i8] c"-maxmemory N\0A\00", align 1
@.str.71 = private unnamed_addr constant [80 x i8] c"    Memory limit (in megabytes) for intermediate buffers used with progressive\0A\00", align 1
@.str.72 = private unnamed_addr constant [45 x i8] c"    JPEG decompression [default = no limit]\0A\00", align 1
@.str.73 = private unnamed_addr constant [13 x i8] c"-maxscans N\0A\00", align 1
@.str.74 = private unnamed_addr constant [78 x i8] c"    Refuse to decompress progressive JPEG images that have more than N scans\0A\00", align 1
@.str.75 = private unnamed_addr constant [11 x i8] c"-nosmooth\0A\00", align 1
@.str.76 = private unnamed_addr constant [64 x i8] c"    Use the fastest chrominance upsampling algorithm available\0A\00", align 1
@.str.77 = private unnamed_addr constant [6 x i8] c"-rgb\0A\00", align 1
@.str.78 = private unnamed_addr constant [70 x i8] c"    Decompress a grayscale JPEG image into a full-color output image\0A\00", align 1
@.str.79 = private unnamed_addr constant [12 x i8] c"-scale M/N\0A\00", align 1
@.str.80 = private unnamed_addr constant [70 x i8] c"    Scale the width/height of the JPEG image by a factor of M/N when\0A\00", align 1
@.str.81 = private unnamed_addr constant [29 x i8] c"    decompressing it (M/N = \00", align 1
@.str.82 = private unnamed_addr constant [5 x i8] c" or \00", align 1
@.str.83 = private unnamed_addr constant [3 x i8] c", \00", align 1
@.str.84 = private unnamed_addr constant [4 x i8] c"or \00", align 1
@.str.85 = private unnamed_addr constant [6 x i8] c"\0A    \00", align 1
@.str.86 = private unnamed_addr constant [4 x i8] c")\0A\0A\00", align 1

; Function Attrs: nounwind uwtable
define internal void @usage(ptr noundef %0) #0 {
  %2 = alloca ptr, align 8
  %3 = alloca i32, align 4
  store ptr %0, ptr %2, align 8, !tbaa !11
  call void @llvm.lifetime.start.p0(i64 4, ptr %3) #11
  %4 = load ptr, ptr %2, align 8, !tbaa !11
  %5 = call i32 (ptr, ...) @printf(ptr noundef @.str.44, ptr noundef %4)
  %6 = call i32 (ptr, ...) @printf(ptr noundef @.str.45)
  %7 = call i32 (ptr, ...) @printf(ptr noundef @.str.46)
  %8 = call i32 (ptr, ...) @printf(ptr noundef @.str.47)
  %9 = call i32 (ptr, ...) @printf(ptr noundef @.str.48)
  %10 = call i32 (ptr, ...) @printf(ptr noundef @.str.49)
  %11 = call i32 (ptr, ...) @printf(ptr noundef @.str.50)
  %12 = call i32 (ptr, ...) @printf(ptr noundef @.str.51)
  %13 = call i32 (ptr, ...) @printf(ptr noundef @.str.52)
  %14 = call i32 (ptr, ...) @printf(ptr noundef @.str.53)
  %15 = call i32 (ptr, ...) @printf(ptr noundef @.str.54)
  %16 = call i32 (ptr, ...) @printf(ptr noundef @.str.55)
  %17 = call i32 (ptr, ...) @printf(ptr noundef @.str.56)
  %18 = call i32 (ptr, ...) @printf(ptr noundef @.str.57)
  %19 = call i32 (ptr, ...) @printf(ptr noundef @.str.58)
  %20 = call i32 (ptr, ...) @printf(ptr noundef @.str.59)
  %21 = call i32 (ptr, ...) @printf(ptr noundef @.str.60)
  %22 = call i32 (ptr, ...) @printf(ptr noundef @.str.61)
  %23 = call i32 (ptr, ...) @printf(ptr noundef @.str.62)
  %24 = call i32 (ptr, ...) @printf(ptr noundef @.str.63)
  %25 = call i32 (ptr, ...) @printf(ptr noundef @.str.64)
  %26 = call i32 (ptr, ...) @printf(ptr noundef @.str.65)
  %27 = call i32 (ptr, ...) @printf(ptr noundef @.str.66)
  %28 = call i32 (ptr, ...) @printf(ptr noundef @.str.67)
  %29 = call i32 (ptr, ...) @printf(ptr noundef @.str.68)
  %30 = call i32 (ptr, ...) @printf(ptr noundef @.str.69)
  %31 = call i32 (ptr, ...) @printf(ptr noundef @.str.70)
  %32 = call i32 (ptr, ...) @printf(ptr noundef @.str.71)
  %33 = call i32 (ptr, ...) @printf(ptr noundef @.str.72)
  %34 = call i32 (ptr, ...) @printf(ptr noundef @.str.73)
  %35 = call i32 (ptr, ...) @printf(ptr noundef @.str.74)
  %36 = call i32 (ptr, ...) @printf(ptr noundef @.str.75)
  %37 = call i32 (ptr, ...) @printf(ptr noundef @.str.76)
  %38 = call i32 (ptr, ...) @printf(ptr noundef @.str.77)
  %39 = call i32 (ptr, ...) @printf(ptr noundef @.str.78)
  %40 = call i32 (ptr, ...) @printf(ptr noundef @.str.79)
  %41 = call i32 (ptr, ...) @printf(ptr noundef @.str.80)
  %42 = call i32 (ptr, ...) @printf(ptr noundef @.str.81)
  store i32 0, ptr %3, align 4, !tbaa !4
  br label %43

43:                                               ; preds = %99, %1
  %44 = load i32, ptr %3, align 4, !tbaa !4
  %45 = load i32, ptr @numScalingFactors, align 4, !tbaa !4
  %46 = icmp slt i32 %44, %45
  br i1 %46, label %47, label %102

47:                                               ; preds = %43
  %48 = load ptr, ptr @scalingFactors, align 8, !tbaa !13
  %49 = load i32, ptr %3, align 4, !tbaa !4
  %50 = sext i32 %49 to i64
  %51 = getelementptr inbounds %struct.tjscalingfactor, ptr %48, i64 %50
  %52 = getelementptr inbounds nuw %struct.tjscalingfactor, ptr %51, i32 0, i32 0
  %53 = load i32, ptr %52, align 4, !tbaa !24
  %54 = load ptr, ptr @scalingFactors, align 8, !tbaa !13
  %55 = load i32, ptr %3, align 4, !tbaa !4
  %56 = sext i32 %55 to i64
  %57 = getelementptr inbounds %struct.tjscalingfactor, ptr %54, i64 %56
  %58 = getelementptr inbounds nuw %struct.tjscalingfactor, ptr %57, i32 0, i32 1
  %59 = load i32, ptr %58, align 4, !tbaa !26
  %60 = call i32 (ptr, ...) @printf(ptr noundef @.str.18, i32 noundef %53, i32 noundef %59)
  %61 = load i32, ptr @numScalingFactors, align 4, !tbaa !4
  %62 = icmp eq i32 %61, 2
  br i1 %62, label %63, label %70

63:                                               ; preds = %47
  %64 = load i32, ptr %3, align 4, !tbaa !4
  %65 = load i32, ptr @numScalingFactors, align 4, !tbaa !4
  %66 = sub nsw i32 %65, 1
  %67 = icmp ne i32 %64, %66
  br i1 %67, label %68, label %70

68:                                               ; preds = %63
  %69 = call i32 (ptr, ...) @printf(ptr noundef @.str.82)
  br label %89

70:                                               ; preds = %63, %47
  %71 = load i32, ptr @numScalingFactors, align 4, !tbaa !4
  %72 = icmp sgt i32 %71, 2
  br i1 %72, label %73, label %88

73:                                               ; preds = %70
  %74 = load i32, ptr %3, align 4, !tbaa !4
  %75 = load i32, ptr @numScalingFactors, align 4, !tbaa !4
  %76 = sub nsw i32 %75, 1
  %77 = icmp ne i32 %74, %76
  br i1 %77, label %78, label %80

78:                                               ; preds = %73
  %79 = call i32 (ptr, ...) @printf(ptr noundef @.str.83)
  br label %80

80:                                               ; preds = %78, %73
  %81 = load i32, ptr %3, align 4, !tbaa !4
  %82 = load i32, ptr @numScalingFactors, align 4, !tbaa !4
  %83 = sub nsw i32 %82, 2
  %84 = icmp eq i32 %81, %83
  br i1 %84, label %85, label %87

85:                                               ; preds = %80
  %86 = call i32 (ptr, ...) @printf(ptr noundef @.str.84)
  br label %87

87:                                               ; preds = %85, %80
  br label %88

88:                                               ; preds = %87, %70
  br label %89

89:                                               ; preds = %88, %68
  %90 = load i32, ptr %3, align 4, !tbaa !4
  %91 = srem i32 %90, 8
  %92 = icmp eq i32 %91, 0
  br i1 %92, label %93, label %98

93:                                               ; preds = %89
  %94 = load i32, ptr %3, align 4, !tbaa !4
  %95 = icmp ne i32 %94, 0
  br i1 %95, label %96, label %98

96:                                               ; preds = %93
  %97 = call i32 (ptr, ...) @printf(ptr noundef @.str.85)
  br label %98

98:                                               ; preds = %96, %93, %89
  br label %99

99:                                               ; preds = %98
  %100 = load i32, ptr %3, align 4, !tbaa !4
  %101 = add nsw i32 %100, 1
  store i32 %101, ptr %3, align 4, !tbaa !4
  br label %43, !llvm.loop !31

102:                                              ; preds = %43
  %103 = call i32 (ptr, ...) @printf(ptr noundef @.str.86)
  call void @exit(i32 noundef 1) #15
  unreachable
}