; Function Attrs: nofree noreturn nounwind uwtable
define internal fastcc void @usage(ptr noundef %0) unnamed_addr #7 {
  %2 = tail call i32 (ptr, ...) @printf(ptr noundef nonnull dereferenceable(1) @.str.44, ptr noundef %0)
  %puts = tail call i32 @puts(ptr nonnull dereferenceable(1) @str)
  %puts12 = tail call i32 @puts(ptr nonnull dereferenceable(1) @str.1)
  %puts13 = tail call i32 @puts(ptr nonnull dereferenceable(1) @str.2)
  %puts14 = tail call i32 @puts(ptr nonnull dereferenceable(1) @str.3)
  %puts15 = tail call i32 @puts(ptr nonnull dereferenceable(1) @str.4)
  %puts16 = tail call i32 @puts(ptr nonnull dereferenceable(1) @str.5)
  %puts17 = tail call i32 @puts(ptr nonnull dereferenceable(1) @str.6)
  %puts18 = tail call i32 @puts(ptr nonnull dereferenceable(1) @str.7)
  %puts19 = tail call i32 @puts(ptr nonnull dereferenceable(1) @str.8)
  %puts20 = tail call i32 @puts(ptr nonnull dereferenceable(1) @str.9)
  %puts21 = tail call i32 @puts(ptr nonnull dereferenceable(1) @str.10)
  %puts22 = tail call i32 @puts(ptr nonnull dereferenceable(1) @str.11)
  %puts23 = tail call i32 @puts(ptr nonnull dereferenceable(1) @str.12)
  %puts24 = tail call i32 @puts(ptr nonnull dereferenceable(1) @str.13)
  %puts25 = tail call i32 @puts(ptr nonnull dereferenceable(1) @str.14)
  %puts26 = tail call i32 @puts(ptr nonnull dereferenceable(1) @str.15)
  %puts27 = tail call i32 @puts(ptr nonnull dereferenceable(1) @str.16)
  %puts28 = tail call i32 @puts(ptr nonnull dereferenceable(1) @str.17)
  %puts29 = tail call i32 @puts(ptr nonnull dereferenceable(1) @str.18)
  %puts30 = tail call i32 @puts(ptr nonnull dereferenceable(1) @str.19)
  %puts31 = tail call i32 @puts(ptr nonnull dereferenceable(1) @str.20)
  %puts32 = tail call i32 @puts(ptr nonnull dereferenceable(1) @str.21)
  %puts33 = tail call i32 @puts(ptr nonnull dereferenceable(1) @str.22)
  %puts34 = tail call i32 @puts(ptr nonnull dereferenceable(1) @str.23)
  %puts35 = tail call i32 @puts(ptr nonnull dereferenceable(1) @str.24)
  %puts36 = tail call i32 @puts(ptr nonnull dereferenceable(1) @str.25)
  %puts37 = tail call i32 @puts(ptr nonnull dereferenceable(1) @str.26)
  %puts38 = tail call i32 @puts(ptr nonnull dereferenceable(1) @str.27)
  %puts39 = tail call i32 @puts(ptr nonnull dereferenceable(1) @str.28)
  %puts40 = tail call i32 @puts(ptr nonnull dereferenceable(1) @str.29)
  %puts41 = tail call i32 @puts(ptr nonnull dereferenceable(1) @str.30)
  %puts42 = tail call i32 @puts(ptr nonnull dereferenceable(1) @str.31)
  %puts43 = tail call i32 @puts(ptr nonnull dereferenceable(1) @str.32)
  %puts44 = tail call i32 @puts(ptr nonnull dereferenceable(1) @str.33)
  %puts45 = tail call i32 @puts(ptr nonnull dereferenceable(1) @str.34)
  %puts46 = tail call i32 @puts(ptr nonnull dereferenceable(1) @str.35)
  %3 = tail call i32 (ptr, ...) @printf(ptr noundef nonnull dereferenceable(1) @.str.81)
  %4 = load i32, ptr @numScalingFactors, align 4, !tbaa !11
  %5 = icmp sgt i32 %4, 0
  br i1 %5, label %.lr.ph, label %._crit_edge

.lr.ph:                                           ; preds = %1, %33
  %indvars.iv = phi i64 [ %indvars.iv.next, %33 ], [ 0, %1 ]
  %6 = load ptr, ptr @scalingFactors, align 8, !tbaa !9
  %7 = getelementptr inbounds nuw %struct.tjscalingfactor, ptr %6, i64 %indvars.iv
  %8 = load i32, ptr %7, align 4, !tbaa !15
  %9 = getelementptr inbounds nuw i8, ptr %7, i64 4
  %10 = load i32, ptr %9, align 4, !tbaa !17
  %11 = tail call i32 (ptr, ...) @printf(ptr noundef nonnull dereferenceable(1) @.str.18, i32 noundef %8, i32 noundef %10)
  %12 = load i32, ptr @numScalingFactors, align 4, !tbaa !11
  %13 = icmp ne i32 %12, 2
  %.not = icmp eq i64 %indvars.iv, 1
  %or.cond49 = or i1 %.not, %13
  br i1 %or.cond49, label %14, label %.sink.split

14:                                               ; preds = %.lr.ph
  %15 = icmp sgt i32 %12, 2
  br i1 %15, label %16, label %27

16:                                               ; preds = %14
  %17 = add nsw i32 %12, -1
  %18 = zext nneg i32 %17 to i64
  %.not48 = icmp eq i64 %indvars.iv, %18
  br i1 %.not48, label %21, label %19

19:                                               ; preds = %16
  %20 = tail call i32 (ptr, ...) @printf(ptr noundef nonnull dereferenceable(1) @.str.83)
  %.pre = load i32, ptr @numScalingFactors, align 4, !tbaa !11
  br label %21

21:                                               ; preds = %19, %16
  %22 = phi i32 [ %.pre, %19 ], [ %12, %16 ]
  %23 = add nsw i32 %22, -2
  %24 = zext i32 %23 to i64
  %25 = icmp eq i64 %indvars.iv, %24
  br i1 %25, label %.sink.split, label %27

.sink.split:                                      ; preds = %21, %.lr.ph
  %.str.84.sink = phi ptr [ @.str.82, %.lr.ph ], [ @.str.84, %21 ]
  %26 = tail call i32 (ptr, ...) @printf(ptr noundef nonnull dereferenceable(1) %.str.84.sink)
  br label %27

27:                                               ; preds = %.sink.split, %14, %21
  %28 = and i64 %indvars.iv, 7
  %29 = icmp eq i64 %28, 0
  %30 = icmp ne i64 %indvars.iv, 0
  %or.cond = and i1 %30, %29
  br i1 %or.cond, label %31, label %33

31:                                               ; preds = %27
  %32 = tail call i32 (ptr, ...) @printf(ptr noundef nonnull dereferenceable(1) @.str.85)
  br label %33

33:                                               ; preds = %27, %31
  %indvars.iv.next = add nuw nsw i64 %indvars.iv, 1
  %34 = load i32, ptr @numScalingFactors, align 4, !tbaa !11
  %35 = sext i32 %34 to i64
  %36 = icmp slt i64 %indvars.iv.next, %35
  br i1 %36, label %.lr.ph, label %._crit_edge, !llvm.loop !25

._crit_edge:                                      ; preds = %33, %1
  %puts47 = tail call i32 @puts(ptr nonnull dereferenceable(1) @str.36)
  tail call void @exit(i32 noundef 1) #20
  unreachable
}